target datalayout = "e-m:e-p270:32:32-p271:32:32-p272:64:64-i64:64-i128:128-f80:128-n8:16:32:64-S128"
target triple = "x86_64-pc-linux-gnu"

%struct.pdf_struct = type { ptr, i32, i32, i32, i32, i32, ptr, i64, ptr, i64, i64, i64, ptr, ptr, i32, i32, ptr, i32, ptr, i32, %struct.pdf_stats, ptr, i32, i32 }
%struct.pdf_stats = type { i32, i32, i32, i32, i32, i32, i32, i32, i32, i32, i32, i32, i32, i32, i32, i32, i32, i32, i32, i32, i32, i32, i32, i32, i32, ptr, ptr, ptr, ptr, ptr, ptr, ptr, ptr }
%struct.cli_ctx_tag = type { ptr, ptr, ptr, ptr, ptr, ptr, ptr, i64, ptr, i32, i32, ptr, i32, i32, ptr, [16 x i8], ptr, ptr, ptr, ptr, ptr, ptr, %struct.timeval, i8, i8 }
%struct.timeval = type { i64, i64 }
%struct.cl_fmap = type { ptr, ptr, ptr, i64, i64, i64, i64, i8, i8, i8, i64, i64, i64, i64, ptr, ptr, ptr, ptr, ptr, ptr, ptr, i8, [16 x i8], i8, [20 x i8], i8, [32 x i8], ptr, ptr }

@.str.213 = private unnamed_addr constant [49 x i8] c"run_pdf_hooks: can't allocate memory for bc_ctx\0A\00", align 1
@.str.214 = private unnamed_addr constant [45 x i8] c"run_pdf_hooks: can't mmap pdf extracted obj\0A\00", align 1

; Function Attrs: nounwind uwtable
define internal void @funmap(ptr noundef %0) #0 {
  %2 = alloca ptr, align 8
  store ptr %0, ptr %2, align 8
  %3 = load ptr, ptr %2, align 8
  %4 = getelementptr inbounds %struct.cl_fmap, ptr %3, i32 0, i32 14
  %5 = load ptr, ptr %4, align 8
  %6 = load ptr, ptr %2, align 8
  call void %5(ptr noundef %6)
  ret void
}

; Function Attrs: nounwind uwtable
define internal i32 @run_pdf_hooks(ptr noundef %0, i32 noundef %1, i32 noundef %2) #0 {
  %4 = alloca i32, align 4
  %5 = alloca ptr, align 8
  %6 = alloca i32, align 4
  %7 = alloca i32, align 4
  %8 = alloca i32, align 4
  %9 = alloca ptr, align 8
  %10 = alloca ptr, align 8
  %11 = alloca ptr, align 8
  store ptr %0, ptr %5, align 8
  store i32 %1, ptr %6, align 4
  store i32 %2, ptr %7, align 4
  store ptr null, ptr %10, align 8
  %12 = load ptr, ptr %5, align 8
  %13 = icmp eq ptr null, %12
  br i1 %13, label %14, label %15

14:                                               ; preds = %3
  store i32 3, ptr %4, align 4
  br label %75

15:                                               ; preds = %3
  %16 = load ptr, ptr %5, align 8
  %17 = getelementptr inbounds %struct.pdf_struct, ptr %16, i32 0, i32 12
  %18 = load ptr, ptr %17, align 8
  store ptr %18, ptr %10, align 8
  %19 = call ptr @cli_bytecode_context_alloc()
  store ptr %19, ptr %9, align 8
  %20 = load ptr, ptr %9, align 8
  %21 = icmp ne ptr %20, null
  br i1 %21, label %23, label %22

22:                                               ; preds = %15
  call void (ptr, ...) @cli_errmsg(ptr noundef @.str.213)
  store i32 20, ptr %4, align 4
  br label %75

23:                                               ; preds = %15
  %24 = load ptr, ptr %10, align 8
  %25 = getelementptr inbounds %struct.cli_ctx_tag, ptr %24, i32 0, i32 14
  %26 = load ptr, ptr %25, align 8
  store ptr %26, ptr %11, align 8
  %27 = load i32, ptr %7, align 4
  %28 = icmp ne i32 %27, -1
  br i1 %28, label %29, label %39

29:                                               ; preds = %23
  %30 = load i32, ptr %7, align 4
  %31 = call ptr @fmap(i32 noundef %30, i64 noundef 0, i64 noundef 0, ptr noundef null)
  store ptr %31, ptr %11, align 8
  %32 = load ptr, ptr %11, align 8
  %33 = icmp ne ptr %32, null
  br i1 %33, label %38, label %34

34:                                               ; preds = %29
  call void (ptr, ...) @cli_dbgmsg(ptr noundef @.str.214)
  %35 = load ptr, ptr %10, align 8
  %36 = getelementptr inbounds %struct.cli_ctx_tag, ptr %35, i32 0, i32 14
  %37 = load ptr, ptr %36, align 8
  store ptr %37, ptr %11, align 8
  store i32 -1, ptr %7, align 4
  br label %38

38:                                               ; preds = %34, %29
  br label %39

39:                                               ; preds = %38, %23
  %40 = load ptr, ptr %9, align 8
  %41 = load i32, ptr %6, align 4
  %42 = load ptr, ptr %5, align 8
  %43 = getelementptr inbounds %struct.pdf_struct, ptr %42, i32 0, i32 1
  %44 = load i32, ptr %43, align 8
  %45 = load ptr, ptr %5, align 8
  %46 = getelementptr inbounds %struct.pdf_struct, ptr %45, i32 0, i32 0
  %47 = load ptr, ptr %46, align 8
  %48 = load ptr, ptr %5, align 8
  %49 = getelementptr inbounds %struct.pdf_struct, ptr %48, i32 0, i32 2
  %50 = load ptr, ptr %5, align 8
  %51 = getelementptr inbounds %struct.pdf_struct, ptr %50, i32 0, i32 9
  %52 = load i64, ptr %51, align 8
  %53 = trunc i64 %52 to i32
  %54 = load ptr, ptr %5, align 8
  %55 = getelementptr inbounds %struct.pdf_struct, ptr %54, i32 0, i32 11
  %56 = load i64, ptr %55, align 8
  %57 = trunc i64 %56 to i32
  %58 = call i32 @cli_bytecode_context_setpdf(ptr noundef %40, i32 noundef %41, i32 noundef %44, ptr noundef %47, ptr noundef %49, i32 noundef %53, i32 noundef %57)
  %59 = load ptr, ptr %9, align 8
  %60 = load ptr, ptr %10, align 8
  call void @cli_bytecode_context_setctx(ptr noundef %59, ptr noundef %60)
  %61 = load ptr, ptr %10, align 8
  %62 = load ptr, ptr %10, align 8
  %63 = getelementptr inbounds %struct.cli_ctx_tag, ptr %62, i32 0, i32 6
  %64 = load ptr, ptr %63, align 8
  %65 = load ptr, ptr %9, align 8
  %66 = load ptr, ptr %11, align 8
  %67 = call i32 @cli_bytecode_runhook(ptr noundef %61, ptr noundef %64, ptr noundef %65, i32 noundef 258, ptr noundef %66)
  store i32 %67, ptr %8, align 4
  %68 = load ptr, ptr %9, align 8
  call void @cli_bytecode_context_destroy(ptr noundef %68)
  %69 = load i32, ptr %7, align 4
  %70 = icmp ne i32 %69, -1
  br i1 %70, label %71, label %73

71:                                               ; preds = %39
  %72 = load ptr, ptr %11, align 8
  call void @funmap(ptr noundef %72)
  br label %73

73:                                               ; preds = %71, %39
  %74 = load i32, ptr %8, align 4
  store i32 %74, ptr %4, align 4
  br label %75

75:                                               ; preds = %73, %22, %14
  %76 = load i32, ptr %4, align 4
  ret i32 %76
}