; Function Attrs: nounwind uwtable
define internal fastcc i32 @run_pdf_hooks(ptr noundef %0, i32 noundef %1, i32 noundef %2) unnamed_addr #0 {
  %4 = icmp eq ptr %0, null
  br i1 %4, label %35, label %5

5:                                                ; preds = %3
  %6 = getelementptr inbounds i8, ptr %0, i64 80
  %7 = load ptr, ptr %6, align 8
  %8 = tail call ptr @cli_bytecode_context_alloc() #22
  %.not = icmp eq ptr %8, null
  br i1 %.not, label %9, label %10

9:                                                ; preds = %5
  tail call void (ptr, ...) @cli_errmsg(ptr noundef nonnull @.str.213) #22
  br label %35

10:                                               ; preds = %5
  %11 = getelementptr inbounds i8, ptr %7, i64 96
  %12 = load ptr, ptr %11, align 8
  %.not31 = icmp eq i32 %2, -1
  br i1 %.not31, label %17, label %13

13:                                               ; preds = %10
  %14 = tail call ptr @fmap(i32 noundef %2, i64 noundef 0, i64 noundef 0, ptr noundef null) #22
  %.not32 = icmp eq ptr %14, null
  br i1 %.not32, label %15, label %17

15:                                               ; preds = %13
  tail call void (ptr, ...) @cli_dbgmsg(ptr noundef nonnull @.str.214) #22
  %16 = load ptr, ptr %11, align 8
  br label %17

17:                                               ; preds = %13, %15, %10
  %.026 = phi i1 [ false, %13 ], [ true, %15 ], [ true, %10 ]
  %.0 = phi ptr [ %14, %13 ], [ %16, %15 ], [ %12, %10 ]
  %18 = getelementptr inbounds i8, ptr %0, i64 8
  %19 = load i32, ptr %18, align 8
  %20 = load ptr, ptr %0, align 8
  %21 = getelementptr inbounds i8, ptr %0, i64 12
  %22 = getelementptr inbounds i8, ptr %0, i64 56
  %23 = load i64, ptr %22, align 8
  %24 = trunc i64 %23 to i32
  %25 = getelementptr inbounds i8, ptr %0, i64 72
  %26 = load i64, ptr %25, align 8
  %27 = trunc i64 %26 to i32
  %28 = tail call i32 @cli_bytecode_context_setpdf(ptr noundef nonnull %8, i32 noundef %1, i32 noundef %19, ptr noundef %20, ptr noundef nonnull %21, i32 noundef %24, i32 noundef %27) #22
  tail call void @cli_bytecode_context_setctx(ptr noundef nonnull %8, ptr noundef nonnull %7) #22
  %29 = getelementptr inbounds i8, ptr %7, i64 48
  %30 = load ptr, ptr %29, align 8
  %31 = tail call i32 @cli_bytecode_runhook(ptr noundef nonnull %7, ptr noundef %30, ptr noundef nonnull %8, i32 noundef 258, ptr noundef %.0) #22
  tail call void @cli_bytecode_context_destroy(ptr noundef nonnull %8) #22
  br i1 %.026, label %35, label %32

32:                                               ; preds = %17
  %33 = getelementptr inbounds i8, ptr %.0, i64 96
  %34 = load ptr, ptr %33, align 8
  tail call void %34(ptr noundef %.0) #22
  br label %35

35:                                               ; preds = %17, %32, %3, %9
  %.025 = phi i32 [ 20, %9 ], [ 3, %3 ], [ %31, %32 ], [ %31, %17 ]
  ret i32 %.025
}